; Function Attrs: mustprogress nounwind uwtable
define hidden noundef ptr @_ZN12NativeLookup11lookup_baseERK12methodHandleP10JavaThread(ptr nocapture noundef nonnull readonly align 8 dereferenceable(16) %0, ptr noundef %1) local_unnamed_addr #0 align 2 {
  %3 = alloca %class.stringStream, align 8
  %4 = getelementptr inbounds i8, ptr %1, i64 800
  %5 = load ptr, ptr %4, align 8
  %6 = getelementptr inbounds i8, ptr %5, i64 24
  %7 = load ptr, ptr %6, align 8
  %8 = getelementptr inbounds i8, ptr %5, i64 32
  %9 = load ptr, ptr %8, align 8
  %10 = getelementptr inbounds i8, ptr %5, i64 40
  %11 = load ptr, ptr %10, align 8
  %12 = getelementptr inbounds i8, ptr %5, i64 8
  %13 = load i64, ptr %12, align 8
  %14 = tail call noundef ptr @_ZN12NativeLookup12lookup_entryERK12methodHandleP10JavaThread(ptr noundef nonnull align 8 dereferenceable(16) %0, ptr noundef %1)
  %15 = getelementptr inbounds i8, ptr %1, i64 8
  %16 = load ptr, ptr %15, align 8
  %.not20 = icmp eq ptr %16, null
  br i1 %.not20, label %17, label %26

17:                                               ; preds = %2
  %.not = icmp eq ptr %14, null
  br i1 %.not, label %18, label %26

18:                                               ; preds = %17
  %19 = tail call noundef ptr @_ZN12NativeLookup21lookup_entry_prefixedERK12methodHandleP10JavaThread(ptr noundef nonnull align 8 dereferenceable(16) %0, ptr noundef nonnull %1)
  %20 = load ptr, ptr %15, align 8
  %.not21 = icmp eq ptr %20, null
  br i1 %.not21, label %21, label %26

21:                                               ; preds = %18
  %.not16 = icmp eq ptr %19, null
  br i1 %.not16, label %22, label %26

22:                                               ; preds = %21
  call void @_ZN12stringStreamC1Em(ptr noundef nonnull align 8 dereferenceable(129) %3, i64 noundef 0) #10
  call void (ptr, ptr, ...) @_ZN12outputStream5printEPKcz(ptr noundef nonnull align 8 dereferenceable(56) %3, ptr noundef nonnull @.str.7) #10
  %23 = load ptr, ptr %0, align 8
  call void @_ZNK6Method19print_external_nameEP12outputStream(ptr noundef nonnull align 8 dereferenceable(88) %23, ptr noundef nonnull %3) #10
  call void (ptr, ptr, ...) @_ZN12outputStream5printEPKcz(ptr noundef nonnull align 8 dereferenceable(56) %3, ptr noundef nonnull @.str.7) #10
  %24 = load ptr, ptr getelementptr inbounds (i8, ptr @_ZN6Symbol11_vm_symbolsE, i64 1368), align 8
  %25 = call noundef ptr @_ZNK12stringStream9as_stringEb(ptr noundef nonnull align 8 dereferenceable(129) %3, i1 noundef zeroext false) #10
  call void @_ZN10Exceptions10_throw_msgEP10JavaThreadPKciP6SymbolS3_(ptr noundef nonnull %1, ptr noundef nonnull @.str.8, i32 noundef 417, ptr noundef %24, ptr noundef %25) #10
  call void @_ZN12stringStreamD1Ev(ptr noundef nonnull align 8 dereferenceable(129) %3) #10
  br label %26

26:                                               ; preds = %21, %18, %17, %2, %22
  %.0 = phi ptr [ null, %22 ], [ null, %2 ], [ %14, %17 ], [ null, %18 ], [ %19, %21 ]
  %27 = load ptr, ptr %7, align 8
  %.not.i.i.i.i = icmp eq ptr %27, null
  br i1 %.not.i.i.i.i, label %29, label %28

28:                                               ; preds = %26
  call void @_ZN5Arena17set_size_in_bytesEm(ptr noundef nonnull align 8 dereferenceable(48) %5, i64 noundef %13) #10
  call void @_ZN5Chunk9next_chopEPS_(ptr noundef nonnull %7) #10
  br label %29

29:                                               ; preds = %28, %26
  %30 = load ptr, ptr %8, align 8
  %.not8.i.i.i.i = icmp eq ptr %30, %9
  br i1 %.not8.i.i.i.i, label %_ZN12ResourceMarkD2Ev.exit, label %31

31:                                               ; preds = %29
  store ptr %7, ptr %6, align 8
  store ptr %9, ptr %8, align 8
  store ptr %11, ptr %10, align 8
  br label %_ZN12ResourceMarkD2Ev.exit

_ZN12ResourceMarkD2Ev.exit:                       ; preds = %29, %31
  ret ptr %.0
}